; Function Attrs: mustprogress uwtable
define hidden void @_ZNK18expr_pattern_match7displayERSo(ptr noundef nonnull readonly align 8 captures(none) dereferenceable(64) %0, ptr noundef nonnull align 8 dereferenceable(8) %1) local_unnamed_addr #4 align 2 {
  %3 = getelementptr inbounds nuw i8, ptr %0, i64 32
  br label %4

4:                                                ; preds = %13, %2
  %indvars.iv = phi i64 [ %indvars.iv.next, %13 ], [ 0, %2 ]
  %5 = load ptr, ptr %3, align 8, !tbaa !74
  %6 = icmp eq ptr %5, null
  br i1 %6, label %_ZNK6vectorIN18expr_pattern_match5instrELb0EjE4sizeEv.exit, label %7

7:                                                ; preds = %4
  %8 = getelementptr inbounds i8, ptr %5, i64 -4
  %9 = load i32, ptr %8, align 4, !tbaa !12
  %10 = zext i32 %9 to i64
  br label %_ZNK6vectorIN18expr_pattern_match5instrELb0EjE4sizeEv.exit

_ZNK6vectorIN18expr_pattern_match5instrELb0EjE4sizeEv.exit: ; preds = %4, %7
  %.0.i = phi i64 [ %10, %7 ], [ 0, %4 ]
  %11 = icmp samesign ult i64 %indvars.iv, %.0.i
  br i1 %11, label %13, label %12

12:                                               ; preds = %_ZNK6vectorIN18expr_pattern_match5instrELb0EjE4sizeEv.exit
  ret void

13:                                               ; preds = %_ZNK6vectorIN18expr_pattern_match5instrELb0EjE4sizeEv.exit
  %14 = getelementptr inbounds nuw %"struct.expr_pattern_match::instr", ptr %5, i64 %indvars.iv
  tail call void @_ZNK18expr_pattern_match7displayERSoRKNS_5instrE(ptr noundef nonnull align 8 dereferenceable(64) %0, ptr noundef nonnull align 8 dereferenceable(8) %1, ptr noundef nonnull align 8 dereferenceable(48) %14)
  %indvars.iv.next = add nuw nsw i64 %indvars.iv, 1
  br label %4, !llvm.loop !291
}